; Function Attrs: mustprogress uwtable
define noundef ptr @_ZN18OpenImageIO_v2_6_024dpx_input_imageio_createEv() local_unnamed_addr #5 personality ptr @__gxx_personality_v0 {
entry:
  %call = tail call noundef ptr @_ZN18OpenImageIO_v2_6_010ImageInputnwEm(i64 noundef 2400)
  invoke void @_ZN18OpenImageIO_v2_6_08DPXInputC2Ev(ptr noundef nonnull align 8 dereferenceable(2400) %call)
          to label %invoke.cont unwind label %lpad

invoke.cont:                                      ; preds = %entry
  ret ptr %call

lpad:                                             ; preds = %entry
  %0 = landingpad { ptr, i32 }
          cleanup
  tail call void @_ZN18OpenImageIO_v2_6_010ImageInputdlEPv(ptr noundef %call) #21
  resume { ptr, i32 } %0
}